CCS PCM C Compiler, Version 4.106, 5236               25-Jul-10 14:53

               Filename: D:\work firmware\PIC\termo2\main.lst

               ROM used: 116 words (1%)
                         Largest free fragment is 2048
               RAM used: 7 (2%) at main() level
                         8 (2%) worst case
               Stack:    1 locations

*
0000:  MOVLW  00
0001:  MOVWF  0A
0002:  GOTO   019
0003:  NOP
.................... #include "D:\work firmware\PIC\termo2\main.h" 
.................... #include <16F877.h> 
.................... //////// Standard Header file for the PIC16F877 device //////////////// 
.................... #device PIC16F877 
.................... #list 
....................  
.................... #device adc=8 
....................  
.................... #FUSES NOWDT                 	//No Watch Dog Timer 
.................... #FUSES XT                    	//Crystal osc <= 4mhz for PCM/PCH , 3mhz to 10 mhz for PCD 
.................... #FUSES NOPUT                 	//No Power Up Timer 
.................... #FUSES NOPROTECT             	//Code not protected from reading 
.................... #FUSES NOBROWNOUT            	//No brownout reset 
.................... #FUSES NOLVP                 	//No low voltage prgming, B3(PIC16) or B5(PIC18) used for I/O 
.................... #FUSES NOCPD                 	//No EE protection 
.................... #FUSES NOWRT                 	//Program memory not write protected 
.................... #FUSES NODEBUG               	//No Debug mode for ICD 
....................  
.................... #use delay(clock=4000000) 
*
0004:  MOVLW  22
0005:  MOVWF  04
0006:  BCF    03.7
0007:  MOVF   00,W
0008:  BTFSC  03.2
0009:  GOTO   018
000A:  MOVLW  01
000B:  MOVWF  78
000C:  CLRF   77
000D:  DECFSZ 77,F
000E:  GOTO   00D
000F:  DECFSZ 78,F
0010:  GOTO   00C
0011:  MOVLW  4A
0012:  MOVWF  77
0013:  DECFSZ 77,F
0014:  GOTO   013
0015:  GOTO   016
0016:  DECFSZ 00,F
0017:  GOTO   00A
0018:  RETURN
....................  
....................  
....................  
....................  
.................... #define LED PIN_B7  //CHANGE PIN_XX TO YOUR LED PIN NUMBER, EX: PIN_A5 
....................  
.................... void main() 
.................... { 
0019:  CLRF   04
001A:  BCF    03.7
001B:  MOVLW  1F
001C:  ANDWF  03,F
001D:  BSF    03.5
001E:  BSF    1F.0
001F:  BSF    1F.1
0020:  BSF    1F.2
0021:  BCF    1F.3
....................  
....................    setup_adc_ports(NO_ANALOGS); 
*
0025:  BSF    03.5
0026:  BSF    1F.0
0027:  BSF    1F.1
0028:  BSF    1F.2
0029:  BCF    1F.3
....................    setup_adc(ADC_CLOCK_DIV_2); 
002A:  BCF    03.5
002B:  BCF    1F.6
002C:  BCF    1F.7
002D:  BSF    03.5
002E:  BCF    1F.7
002F:  BCF    03.5
0030:  BSF    1F.0
....................    setup_psp(PSP_DISABLED); 
0031:  BSF    03.5
0032:  BCF    09.4
....................    setup_spi(SPI_SS_DISABLED); 
0033:  BCF    03.5
0034:  BCF    14.5
0035:  BCF    20.5
0036:  MOVF   20,W
0037:  BSF    03.5
0038:  MOVWF  07
0039:  BCF    03.5
003A:  BSF    20.4
003B:  MOVF   20,W
003C:  BSF    03.5
003D:  MOVWF  07
003E:  BCF    03.5
003F:  BCF    20.3
0040:  MOVF   20,W
0041:  BSF    03.5
0042:  MOVWF  07
0043:  MOVLW  01
0044:  BCF    03.5
0045:  MOVWF  14
0046:  MOVLW  00
0047:  BSF    03.5
0048:  MOVWF  14
....................    setup_timer_0(RTCC_INTERNAL|RTCC_DIV_1); 
0049:  MOVF   01,W
004A:  ANDLW  C7
004B:  IORLW  08
004C:  MOVWF  01
....................    setup_timer_1(T1_DISABLED); 
004D:  BCF    03.5
004E:  CLRF   10
....................    setup_timer_2(T2_DISABLED,0,1); 
004F:  MOVLW  00
0050:  MOVWF  78
0051:  MOVWF  12
0052:  MOVLW  00
0053:  BSF    03.5
0054:  MOVWF  12
....................    setup_ccp1(CCP_OFF); 
0055:  BCF    03.5
0056:  BSF    20.2
0057:  MOVF   20,W
0058:  BSF    03.5
0059:  MOVWF  07
005A:  BCF    03.5
005B:  CLRF   17
....................  
....................     //Example blinking LED program 
....................     while(true){ 
....................       output_low(LED); 
005C:  BSF    03.5
005D:  BCF    06.7
005E:  BCF    03.5
005F:  BCF    06.7
....................       delay_ms(1000); 
0060:  MOVLW  04
0061:  MOVWF  21
0062:  MOVLW  FA
0063:  MOVWF  22
0064:  CALL   004
0065:  DECFSZ 21,F
0066:  GOTO   062
....................       output_high(LED); 
0067:  BSF    03.5
0068:  BCF    06.7
0069:  BCF    03.5
006A:  BSF    06.7
....................       delay_ms(1000); 
006B:  MOVLW  04
006C:  MOVWF  21
006D:  MOVLW  FA
006E:  MOVWF  22
006F:  CALL   004
0070:  DECFSZ 21,F
0071:  GOTO   06D
....................     } 
0072:  GOTO   05C
....................  
.................... } 
0073:  SLEEP

Configuration Fuses:
   Word  1: 3F39   XT NOWDT NOPUT NOPROTECT NOBROWNOUT NOLVP NOCPD NOWRT NODEBUG
